(dp0
S'auto'
p1
(dp2
S'PD1172'
p3
(dp4
S'dyears'
p5
F6.001492159318809
sS'bvals'
p6
(lp7
F0.532207977326095
aF0.421754281669045
aF0.430143911619342
aF0.0415283945558282
aF0.176576154718432
aF0.399565926059939
asS'grow'
p8
I00
sS'fvals'
p9
(lp10
F0.519871637333243
aF0.38852907573667
aF0.501314584468675
aF0.044852738924229
aF0.0665489242753745
aF0.208276110355536
assS'WC610'
p11
(dp12
g5
F1.9986721151016107
sg6
(lp13
F0.316872744349311
aF0.195466067664492
aF0.431492647283962
aF0.0047052892555
aF0.126004211093453
aF0.360798693244116
asg8
I00
sg9
(lp14
F0.232435235522708
aF0.139352227767387
aF0.399360713173853
aF0.00158744625023286
aF0.187458313827725
aF0.500900251498658
assS'LR1592'
p15
(dp16
g5
F2.0014100221085993
sg6
(lp17
F0.738733858825201
aF0.82669123210961
aF1.01253342978445
aF0.325628239676031
aF0.502378778213769
aF0.68679391011836
asg8
I01
sg9
(lp18
F0.78613478750256
aF0.978733802291177
aF1.12904314832509
aF0.515911211874001
aF0.468802262113949
aF0.643492922104602
assS'WP446'
p19
(dp20
g5
F0.5010369822788969
sg6
(lp21
F0.414642073721572
aF0.723782255059907
aF1.26371995127734
aF0.115361576620356
aF0.480005533024843
aF0.689370504666274
asg8
I01
sg9
(lp22
F0.426240768393308
aF0.745483527831873
aF1.45302705802688
aF0.129050222570791
aF0.487724333856714
aF0.691075828740189
assS'ME3340'
p23
(dp24
g5
F0.9993360575508053
sg6
(lp25
F0.370954454823895
aF0.246130985654542
aF0.572183312815842
aF0.0146626752356667
aF0.357173726433254
aF0.616618233182034
asg8
I01
sg9
(lp26
F0.380984847358364
aF0.257864387218965
aF0.590613843857756
aF0.0161652483603333
aF0.315103258404533
aF0.563141710030679
assS'BC769'
p27
(dp28
g5
F3.0007460796594043
sg6
(lp29
F0.310956888467079
aF0.210024387368441
aF0.546635673617028
aF0.0077276871115
aF0.526653316341364
aF0.817657338260024
asg8
I01
sg9
(lp30
F0.345310329411217
aF0.331734983850688
aF0.785866143561484
aF0.0184971652600311
aF0.353948166043917
aF0.588494032102129
assS'MM8894'
p31
(dp32
g5
F0.9993360575508053
sg6
(lp33
F0.775015626878669
aF0.870568125653841
aF1.03472936976534
aF0.351499550924999
aF0.459080113492228
aF0.641923485940541
asg8
I00
sg9
(lp34
F0.797589951353471
aF0.929431088727938
aF1.05231713575186
aF0.397976639587834
aF0.488508996907881
aF0.667705558507466
assS'BI8022'
p35
(dp36
g5
F0.9993360575508053
sg6
(lp37
F0.701778005606626
aF0.520660070482746
aF0.737593257823299
aF0.129899517566667
aF0.429187364943746
aF0.649508247267435
asg8
I00
sg9
(lp38
F0.724392143167176
aF0.509703624944213
aF0.698148946533735
aF0.140408915870833
aF0.486374710786864
aF0.708528068311589
assS'LR4789'
p39
(dp40
g5
F2.0014100221085993
sg6
(lp41
F0.574814753847458
aF0.624570348151084
aF1.03706938702734
aF0.164228084709128
aF0.607831046604124
aF0.764660973094425
asg8
I01
sg9
(lp42
F0.570334860679396
aF0.716471899218529
aF1.20861585998894
aF0.231250183224186
aF0.647841912955339
aF0.788877666447521
assS'EM695'
p43
(dp44
g5
F5.99875425231182
sg6
(lp45
F0.419164337238022
aF0.283954223729326
aF0.622343854006933
aF0.0205469830756667
aF0.329812176271123
aF0.5816751569427
asg8
I00
sg9
(lp46
F0.45164288336038
aF0.273613836551568
aF0.590919949466579
aF0.023249441713809
aF0.294308520281748
aF0.552574694710722
assS'CS1432'
p47
(dp48
g5
F3.0007460796594043
sg6
(lp49
F0.345627060589616
aF0.223403601122433
aF0.562125471924952
aF0.0101458997345353
aF0.293857710915207
aF0.552251996958991
asg8
I01
sg9
(lp50
F0.394101282088891
aF0.243816518143433
aF0.512828424242666
aF0.0133667883875668
aF0.199166783259543
aF0.440319585319241
assS'XJ3252'
p51
(dp52
g5
F3.0007460796594043
sg6
(lp53
F0.271130009273742
aF0.169508395415859
aF0.560241097893281
aF0.00485479112749999
aF0.21266919316555
aF0.449046540896536
asg8
I01
sg9
(lp54
F0.31583750382942
aF0.240796081678004
aF0.743101436092819
aF0.0124291929192482
aF0.422201365698079
aF0.642924953570336
assS'FE1546'
p55
(dp56
g5
F4.00008213721021
sg6
(lp57
F0.40952909110319
aF0.352173511198536
aF0.835847495978565
aF0.0382906665848333
aF0.570996289058995
aF0.75198198033871
asg8
I01
sg9
(lp58
F0.54599751536601
aF0.5216894850804
aF0.914665271088437
aF0.117171798783007
aF0.597113835196818
aF0.761595336906698
assS'PS462'
p59
(dp60
g5
F6.001492159318809
sg6
(lp61
F0.320860393528063
aF0.218925639819033
aF0.673336298966871
aF0.0112137215731667
aF0.296395961119806
aF0.522464891619014
asg8
I00
sg9
(lp62
F0.383699485265838
aF0.231887374349476
aF0.453863495008462
aF0.0111639163573333
aF0.158251905073569
aF0.380968217730507
assS'VR1339'
p63
(dp64
g5
F5.002156101768004
sg6
(lp65
F0.404245645495405
aF0.316274294537565
aF0.764416181123401
aF0.0234764497673358
aF0.494775708453171
aF0.733272727472531
asg8
I00
sg9
(lp66
F0.43584758533935
aF0.306175651945364
aF0.686925360503878
aF0.0260185303973333
aF0.446268777865226
aF0.694901092159254
assS'RS4668'
p67
(dp68
g5
F8.999500331971225
sg6
(lp69
F0.312440919715973
aF0.211153498241376
aF0.264296059172465
aF0.00288902380176369
aF0.0241217777233783
aF0.142230846024457
asg8
I00
sg9
(lp70
F0.301578557112636
aF0.182742717615558
aF0.339942164396131
aF0.00361753991283333
aF0.110087054914243
aF0.342118108024134
assS'LC6797'
p71
(dp72
g5
F1.9986721151016107
sg6
(lp73
F0.625238869650215
aF0.490379446338287
aF0.639805243312519
aF0.079093467507
aF0.250898200435149
aF0.474200948528023
asg8
I00
sg9
(lp74
F0.590996293282713
aF0.443123104944141
aF0.650299619720473
aF0.0634774736606849
aF0.183776248664076
aF0.390875870079747
assS'TK928'
p75
(dp76
g5
F2.0014100221085993
sg6
(lp77
F0.385570927348632
aF0.252716538129644
aF0.537128404845638
aF0.0153476447216667
aF0.246896405883355
aF0.483943960476992
asg8
I01
sg9
(lp78
F0.510297795576893
aF0.331110046895696
aF0.554507746456157
aF0.0377871169398333
aF0.303984508710949
aF0.54266675530504
assS'TY4498'
p79
(dp80
g5
F3.0007460796594043
sg6
(lp81
F0.76860103270638
aF1.00305088444961
aF1.23874452702717
aF0.478723204713168
aF0.577606340204258
aF0.736089818055796
asg8
I01
sg9
(lp82
F0.957875457262431
aF1.22075377569641
aF1.24367238702711
aF1.025932133936
aF0.60096945605825
aF0.748769187514656
assS'BJ8317'
p83
(dp84
g5
F1.9986721151016107
sg6
(lp85
F0.41916428047484
aF0.53053038273141
aF0.91380713537923
aF0.0557366851664994
aF0.398184414055988
aF0.61944903439353
asg8
I00
sg9
(lp86
F0.388412855233484
aF0.496737352225167
aF0.779563093296114
aF0.0362696410334534
aF0.409783324591452
aF0.663520846696557
asssS'manual'
p87
(dp88
S'PD1172'
p89
(dp90
g5
F6.001492159318809
sg6
(lp91
F0.552934341365814
aF0.438563978251422
aF0.455218582296129
aF0.0472122865777365
aF0.176761623744804
aF0.40236354787441
asg8
I00
sg9
(lp92
F0.575366024918682
aF0.431243649430859
aF0.549025300063405
aF0.0597763646974101
aF0.179508302879504
aF0.411434914971712
assS'WC610'
p93
(dp94
g5
F1.9986721151016107
sg6
(lp95
F0.337112728053741
aF0.207179822672629
aF0.401964310933067
aF0.0055243976820827
aF0.144646693589593
aF0.404377883357806
asg8
I00
sg9
(lp96
F0.230675560346245
aF0.13851562719351
aF0.397354991267206
aF0.00166343541868417
aF0.151288043409963
aF0.447431111527681
assS'LR1592'
p97
(dp98
g5
F2.0014100221085993
sg6
(lp99
F0.730338340957279
aF0.810640685576454
aF1.03173491086364
aF0.322413951200184
aF0.509443961805463
aF0.690949376886304
asg8
I01
sg9
(lp100
F0.782340099489795
aF0.991897867068935
aF1.15327205171656
aF0.523461419159783
aF0.515908307428454
aF0.686607375264835
assS'WP446'
p101
(dp102
g5
F0.5010369822788969
sg6
(lp103
F0.39048478551453
aF0.681208267969525
aF1.55351031169706
aF0.110413201143748
aF0.421792038790048
aF0.624569618057365
asg8
I01
sg9
(lp104
F0.407832993821562
aF0.711022392853697
aF1.64861727095251
aF0.124474172299197
aF0.415040139498019
aF0.608863630659699
assS'ME3340'
p105
(dp106
g5
F0.9993360575508053
sg6
(lp107
F0.377461163028826
aF0.253977003143028
aF0.568476732607897
aF0.015094851479606
aF0.305718685212594
aF0.558647880012561
asg8
I01
sg9
(lp108
F0.376976089663974
aF0.25446338041738
aF0.583046125354027
aF0.0157881836611039
aF0.337754410050085
aF0.587659231884568
assS'BC769'
p109
(dp110
g5
F3.0007460796594043
sg6
(lp111
F0.304153251817776
aF0.205725973853398
aF0.516804234317898
aF0.00686347075594573
aF0.292622998651522
aF0.560292422989778
asg8
I01
sg9
(lp112
F0.343176640102448
aF0.329877744377737
aF0.795761487796574
aF0.0183596519737294
aF0.306079172158724
aF0.531527158580923
assS'MM8894'
p113
(dp114
g5
F0.9993360575508053
sg6
(lp115
F0.779937718558755
aF0.854090527421275
aF1.00982433978414
aF0.342321278622912
aF0.444045879179826
aF0.628488770515225
asg8
I00
sg9
(lp116
F0.797742776183769
aF0.944195876382858
aF1.03830904382626
aF0.40497739700907
aF0.418010147703312
aF0.602576441597445
assS'BI8022'
p117
(dp118
g5
F0.9993360575508053
sg6
(lp119
F0.717916888013425
aF0.54336908105355
aF0.738333505478711
aF0.138592318153053
aF0.436615767372545
aF0.659909000298083
asg8
I00
sg9
(lp120
F0.747875809835858
aF0.545278497963821
aF0.727948979611676
aF0.156393920804645
aF0.428190002506826
aF0.660584494211018
assS'LR4789'
p121
(dp122
g5
F2.0014100221085993
sg6
(lp123
F0.575527853579673
aF0.627264639192388
aF1.06384280546009
aF0.164741981995138
aF0.576222372215583
aF0.737762224472807
asg8
I01
sg9
(lp124
F0.570826159602995
aF0.708289170848527
aF1.19370050071792
aF0.228687100114236
aF0.604275650921422
aF0.750898867934996
assS'EM695'
p125
(dp126
g5
F5.99875425231182
sg6
(lp127
F0.427875469069835
aF0.294673935825642
aF0.611795347111436
aF0.0215761977606948
aF0.324815823517685
aF0.578793581264344
asg8
I00
sg9
(lp128
F0.438827317829455
aF0.266426771399547
aF0.587780242868905
aF0.0217116261769435
aF0.285700500285322
aF0.536319952412941
assS'CS1432'
p129
(dp130
g5
F3.0007460796594043
sg6
(lp131
F0.348516741276133
aF0.22044028666768
aF0.530143252615085
aF0.00996696908787472
aF0.268420483215948
aF0.526857777855026
asg8
I01
sg9
(lp132
F0.404621444226583
aF0.245664057144554
aF0.512598815716034
aF0.0143509519561417
aF0.224265678127946
aF0.478496334158488
assS'XJ3252'
p133
(dp134
g5
F3.0007460796594043
sg6
(lp135
F0.296594762317557
aF0.197954822474069
aF0.531617412811606
aF0.00583922386602601
aF0.206681472814107
aF0.45574073154273
asg8
I01
sg9
(lp136
F0.320852421650512
aF0.244375117627159
aF0.708610135025029
aF0.0124562554766132
aF0.372928549232443
aF0.597887730275587
assS'FE1546'
p137
(dp138
g5
F4.00008213721021
sg6
(lp139
F0.419117073002258
aF0.364612750503069
aF0.835038237152354
aF0.0400428287563109
aF0.465057031584866
aF0.66291166909404
asg8
I01
sg9
(lp140
F0.548439838110215
aF0.537029056957575
aF0.942014388094036
aF0.119994845529634
aF0.526232275711863
aF0.703311641214862
assS'PS462'
p141
(dp142
g5
F6.001492159318809
sg6
(lp143
F0.332685806886456
aF0.227814870216534
aF0.664876538081817
aF0.0118968868335906
aF0.341513118844837
aF0.582099742632962
asg8
I00
sg9
(lp144
F0.421093495333648
aF0.274115532038374
aF0.486920134567291
aF0.014992621704089
aF0.179139391351524
aF0.413157978609326
assS'VR1339'
p145
(dp146
g5
F5.002156101768004
sg6
(lp147
F0.401024669213299
aF0.312698127667206
aF0.758912100835073
aF0.0230426603751558
aF0.406121114077805
aF0.640927528129974
asg8
I00
sg9
(lp148
F0.438655234330883
aF0.308021414098897
aF0.683665066493511
aF0.0263428747819799
aF0.362454923583257
aF0.60628603438231
assS'RS4668'
p149
(dp150
g5
F8.999500331971225
sg6
(lp151
F0.363954024824038
aF0.248442793433878
aF0.297718384788803
aF0.00487976991415711
aF0.0856529605882914
aF0.322700137852142
asg8
I00
sg9
(lp152
F0.344403605174454
aF0.229217774561946
aF0.345056898598077
aF0.00499320947065093
aF0.102801250283395
aF0.352157282715388
assS'LC6797'
p153
(dp154
g5
F1.9986721151016107
sg6
(lp155
F0.664827322069984
aF0.540875194096963
aF0.616910635944479
aF0.0936793013620639
aF0.282104935874478
aF0.519876144494694
asg8
I00
sg9
(lp156
F0.641470099932906
aF0.499922780264204
aF0.589501966706061
aF0.0791384802845812
aF0.286908458709062
aF0.535477733740864
assS'TK928'
p157
(dp158
g5
F2.0014100221085993
sg6
(lp159
F0.409842683199283
aF0.272034276233664
aF0.596809575314716
aF0.0189952528687384
aF0.248262708382191
aF0.495984983939618
asg8
I01
sg9
(lp160
F0.515069265254607
aF0.333087244500092
aF0.576454550146116
aF0.0384954711200933
aF0.307580415851757
aF0.548515130912459
assS'TY4498'
p161
(dp162
g5
F3.0007460796594043
sg6
(lp163
F0.771245712830183
aF1.01490216411302
aF1.25154980803792
aF0.484654825280854
aF0.54008951617591
aF0.705265029592027
asg8
I01
sg9
(lp164
F0.967113322139153
aF1.22766303661175
aF1.22833367190434
aF1.03073485947173
aF0.586089096906941
aF0.738064775794083
assS'BJ8317'
p165
(dp166
g5
F1.9986721151016107
sg6
(lp167
F0.410513060998299
aF0.52228199030843
aF1.04362648443018
aF0.0553229238646117
aF0.388011472084739
aF0.602699235011344
asg8
I00
sg9
(lp168
F0.350831689698084
aF0.475502919480839
aF1.06642724046664
aF0.0349067768701808
aF0.355931491233551
aF0.57825217165345
asssS'biomarkers'
p169
(lp170
S'ad'
p171
aS'hmax'
p172
aS'ar'
p173
aS'v'
p174
aS'avsv'
p175
aS'aasa'
p176
as.